; Function Attrs: mustprogress uwtable
define dso_local void @_ZN22btBvhTriangleMeshShape15setOptimizedBvhEP14btOptimizedBvhRK9btVector3(ptr noundef nonnull align 8 dereferenceable(109) %this, ptr noundef %bvh, ptr noundef nonnull align 4 dereferenceable(16) %scaling) local_unnamed_addr #6 align 2 {
entry:
  %m_bvh = getelementptr inbounds i8, ptr %this, i64 80
  store ptr %bvh, ptr %m_bvh, align 8
  %m_ownsBvh = getelementptr inbounds i8, ptr %this, i64 97
  store i8 0, ptr %m_ownsBvh, align 1
  %vtable = load ptr, ptr %this, align 8
  %vfn = getelementptr inbounds i8, ptr %vtable, i64 56
  %0 = load ptr, ptr %vfn, align 8
  %call = tail call noundef nonnull align 4 dereferenceable(16) ptr %0(ptr noundef nonnull align 8 dereferenceable(80) %this)
  %1 = load float, ptr %call, align 4
  %2 = load float, ptr %scaling, align 4
  %sub.i = fsub float %1, %2
  %arrayidx5.i = getelementptr inbounds i8, ptr %call, i64 4
  %3 = load float, ptr %arrayidx5.i, align 4
  %arrayidx7.i = getelementptr inbounds i8, ptr %scaling, i64 4
  %4 = load float, ptr %arrayidx7.i, align 4
  %sub8.i = fsub float %3, %4
  %arrayidx11.i = getelementptr inbounds i8, ptr %call, i64 8
  %5 = load float, ptr %arrayidx11.i, align 4
  %arrayidx13.i = getelementptr inbounds i8, ptr %scaling, i64 8
  %6 = load float, ptr %arrayidx13.i, align 4
  %sub14.i = fsub float %5, %6
  %mul8.i.i = fmul float %sub8.i, %sub8.i
  %7 = tail call float @llvm.fmuladd.f32(float %sub.i, float %sub.i, float %mul8.i.i)
  %8 = tail call noundef float @llvm.fmuladd.f32(float %sub14.i, float %sub14.i, float %7)
  %cmp = fcmp ogt float %8, 0x3E80000000000000
  br i1 %cmp, label %if.then, label %if.end

if.then:                                          ; preds = %entry
  tail call void @_ZN19btTriangleMeshShape15setLocalScalingERK9btVector3(ptr noundef nonnull align 8 dereferenceable(80) %this, ptr noundef nonnull align 4 dereferenceable(16) %scaling)
  br label %if.end

if.end:                                           ; preds = %if.then, %entry
  ret void
}